; Function Attrs: nounwind uwtable
define internal void @hpa_dalloc(ptr noundef %0, ptr noundef %1, ptr noundef %2, ptr noundef writeonly captures(none) %3) #1 {
edata_list_active_append.exit:
  %4 = alloca %struct.edata_list_active_t, align 8
  call void @llvm.lifetime.start.p0(i64 8, ptr nonnull %4) #8
  %5 = getelementptr inbounds nuw i8, ptr %2, i64 40
  store ptr %2, ptr %5, align 8, !tbaa !65
  %6 = getelementptr inbounds nuw i8, ptr %2, i64 48
  store ptr %2, ptr %6, align 8, !tbaa !65
  store ptr %2, ptr %4, align 8, !tbaa !61
  call void @hpa_dalloc_batch(ptr noundef %0, ptr noundef %1, ptr noundef nonnull %4, ptr noundef %3)
  call void @llvm.lifetime.end.p0(i64 8, ptr nonnull %4) #8
  ret void
}